target datalayout = "e-m:e-p270:32:32-p271:32:32-p272:64:64-i64:64-i128:128-f80:128-n8:16:32:64-S128"
target triple = "x86_64-pc-linux-gnu"

%struct.http2_session_data = type { ptr, ptr, ptr, ptr }

; Function Attrs: nounwind uwtable
define internal void @writecb(ptr noundef %0, ptr noundef %1) #0 {
  %3 = alloca ptr, align 8
  %4 = alloca ptr, align 8
  %5 = alloca ptr, align 8
  store ptr %0, ptr %3, align 8, !tbaa !50
  store ptr %1, ptr %4, align 8, !tbaa !29
  call void @llvm.lifetime.start.p0(i64 8, ptr %5) #10
  %6 = load ptr, ptr %4, align 8, !tbaa !29
  store ptr %6, ptr %5, align 8, !tbaa !29
  %7 = load ptr, ptr %5, align 8, !tbaa !29
  %8 = getelementptr inbounds nuw %struct.http2_session_data, ptr %7, i32 0, i32 0
  %9 = load ptr, ptr %8, align 8, !tbaa !54
  %10 = call i32 @nghttp2_session_want_read(ptr noundef %9)
  %11 = icmp eq i32 %10, 0
  br i1 %11, label %12, label %27

12:                                               ; preds = %2
  %13 = load ptr, ptr %5, align 8, !tbaa !29
  %14 = getelementptr inbounds nuw %struct.http2_session_data, ptr %13, i32 0, i32 0
  %15 = load ptr, ptr %14, align 8, !tbaa !54
  %16 = call i32 @nghttp2_session_want_write(ptr noundef %15)
  %17 = icmp eq i32 %16, 0
  br i1 %17, label %18, label %27

18:                                               ; preds = %12
  %19 = load ptr, ptr %5, align 8, !tbaa !29
  %20 = getelementptr inbounds nuw %struct.http2_session_data, ptr %19, i32 0, i32 2
  %21 = load ptr, ptr %20, align 8, !tbaa !51
  %22 = call ptr @bufferevent_get_output(ptr noundef %21)
  %23 = call i64 @evbuffer_get_length(ptr noundef %22)
  %24 = icmp eq i64 %23, 0
  br i1 %24, label %25, label %27

25:                                               ; preds = %18
  %26 = load ptr, ptr %5, align 8, !tbaa !29
  call void @delete_http2_session_data(ptr noundef %26)
  br label %27

27:                                               ; preds = %25, %18, %12, %2
  call void @llvm.lifetime.end.p0(i64 8, ptr %5) #10
  ret void
}