; Function Attrs: nounwind uwtable
define internal void @writecb(ptr readnone captures(none) %0, ptr noundef captures(none) %1) #0 {
  %3 = load ptr, ptr %1, align 8, !tbaa !37
  %4 = tail call i32 @nghttp2_session_want_read(ptr noundef %3) #18
  %5 = icmp eq i32 %4, 0
  br i1 %5, label %6, label %17

6:                                                ; preds = %2
  %7 = load ptr, ptr %1, align 8, !tbaa !37
  %8 = tail call i32 @nghttp2_session_want_write(ptr noundef %7) #18
  %9 = icmp eq i32 %8, 0
  br i1 %9, label %10, label %17

10:                                               ; preds = %6
  %11 = getelementptr inbounds nuw i8, ptr %1, i64 16
  %12 = load ptr, ptr %11, align 8, !tbaa !36
  %13 = tail call ptr @bufferevent_get_output(ptr noundef %12) #18
  %14 = tail call i64 @evbuffer_get_length(ptr noundef %13) #18
  %15 = icmp eq i64 %14, 0
  br i1 %15, label %16, label %17

16:                                               ; preds = %10
  tail call fastcc void @delete_http2_session_data(ptr noundef nonnull %1)
  br label %17

17:                                               ; preds = %16, %10, %6, %2
  ret void
}